target datalayout = "e-m:e-p270:32:32-p271:32:32-p272:64:64-i64:64-i128:128-f80:128-n8:16:32:64-S128"
target triple = "x86_64-pc-linux-gnu"

@hf_tacplus_arg_length = internal global i32 0, align 4
@hf_tacplus_arg_value = internal global i32 0, align 4
@.str.266 = private unnamed_addr constant [19 x i8] c"Arg[%d] length: %d\00", align 1
@.str.267 = private unnamed_addr constant [18 x i8] c"Arg[%d] value: %s\00", align 1

; Function Attrs: null_pointer_is_valid sspstrong uwtable
define internal void @dissect_tacplus_args_list(ptr noundef %0, ptr noundef %1, i32 noundef %2, i32 noundef %3, i32 noundef %4) #0 {
  %6 = alloca ptr, align 8
  %7 = alloca ptr, align 8
  %8 = alloca i32, align 4
  %9 = alloca i32, align 4
  %10 = alloca i32, align 4
  %11 = alloca i32, align 4
  %12 = alloca i32, align 4
  %13 = alloca ptr, align 8
  store ptr %0, ptr %6, align 8
  store ptr %1, ptr %7, align 8
  store i32 %2, ptr %8, align 4
  store i32 %3, ptr %9, align 4
  store i32 %4, ptr %10, align 4
  call void @llvm.lifetime.start.p0(i64 4, ptr %11) #12
  call void @llvm.lifetime.start.p0(i64 4, ptr %12) #12
  call void @llvm.lifetime.start.p0(i64 8, ptr %13) #12
  store i32 0, ptr %11, align 4
  br label %14

14:                                               ; preds = %52, %5
  %15 = load i32, ptr %11, align 4
  %16 = load i32, ptr %10, align 4
  %17 = icmp slt i32 %15, %16
  br i1 %17, label %18, label %55

18:                                               ; preds = %14
  %19 = load ptr, ptr %6, align 8
  %20 = load i32, ptr %9, align 4
  %21 = load i32, ptr %11, align 4
  %22 = add i32 %20, %21
  %23 = call zeroext i8 @tvb_get_uint8(ptr noundef %19, i32 noundef %22)
  %24 = zext i8 %23 to i32
  store i32 %24, ptr %12, align 4
  %25 = load ptr, ptr %7, align 8
  %26 = load i32, ptr @hf_tacplus_arg_length, align 4
  %27 = load ptr, ptr %6, align 8
  %28 = load i32, ptr %9, align 4
  %29 = load i32, ptr %11, align 4
  %30 = add i32 %28, %29
  %31 = load i32, ptr %12, align 4
  %32 = load i32, ptr %11, align 4
  %33 = load i32, ptr %12, align 4
  %34 = call ptr (ptr, i32, ptr, i32, i32, i32, ptr, ...) @proto_tree_add_uint_format(ptr noundef %25, i32 noundef %26, ptr noundef %27, i32 noundef %30, i32 noundef 1, i32 noundef %31, ptr noundef @.str.266, i32 noundef %32, i32 noundef %33)
  %35 = call ptr @wmem_packet_scope()
  %36 = load ptr, ptr %6, align 8
  %37 = load i32, ptr %8, align 4
  %38 = load i32, ptr %12, align 4
  %39 = call ptr @tvb_get_string_enc(ptr noundef %35, ptr noundef %36, i32 noundef %37, i32 noundef %38, i32 noundef 0)
  store ptr %39, ptr %13, align 8
  %40 = load ptr, ptr %7, align 8
  %41 = load i32, ptr @hf_tacplus_arg_value, align 4
  %42 = load ptr, ptr %6, align 8
  %43 = load i32, ptr %8, align 4
  %44 = load i32, ptr %12, align 4
  %45 = load ptr, ptr %13, align 8
  %46 = load i32, ptr %11, align 4
  %47 = load ptr, ptr %13, align 8
  %48 = call ptr (ptr, i32, ptr, i32, i32, ptr, ptr, ...) @proto_tree_add_string_format(ptr noundef %40, i32 noundef %41, ptr noundef %42, i32 noundef %43, i32 noundef %44, ptr noundef %45, ptr noundef @.str.267, i32 noundef %46, ptr noundef %47)
  %49 = load i32, ptr %12, align 4
  %50 = load i32, ptr %8, align 4
  %51 = add i32 %50, %49
  store i32 %51, ptr %8, align 4
  br label %52

52:                                               ; preds = %18
  %53 = load i32, ptr %11, align 4
  %54 = add i32 %53, 1
  store i32 %54, ptr %11, align 4
  br label %14, !llvm.loop !11

55:                                               ; preds = %14
  call void @llvm.lifetime.end.p0(i64 8, ptr %13) #12
  call void @llvm.lifetime.end.p0(i64 4, ptr %12) #12
  call void @llvm.lifetime.end.p0(i64 4, ptr %11) #12
  ret void
}