; Function Attrs: null_pointer_is_valid sspstrong uwtable
define internal fastcc void @dissect_tacplus_args_list(ptr noundef %0, ptr noundef %1, i32 noundef %2, i32 noundef range(i32 6, 10) %3, i32 noundef range(i32 0, 256) %4) unnamed_addr #0 {
  %.not = icmp eq i32 %4, 0
  br i1 %.not, label %._crit_edge, label %.lr.ph

.lr.ph:                                           ; preds = %5, %.lr.ph
  %.026 = phi i32 [ %15, %.lr.ph ], [ %2, %5 ]
  %.02425 = phi i32 [ %16, %.lr.ph ], [ 0, %5 ]
  %6 = add nuw nsw i32 %.02425, %3
  %7 = tail call zeroext i8 @tvb_get_uint8(ptr noundef %0, i32 noundef %6)
  %8 = zext i8 %7 to i32
  %9 = load i32, ptr @hf_tacplus_arg_length, align 4
  %10 = tail call ptr (ptr, i32, ptr, i32, i32, i32, ptr, ...) @proto_tree_add_uint_format(ptr noundef %1, i32 noundef %9, ptr noundef %0, i32 noundef %6, i32 noundef 1, i32 noundef %8, ptr noundef nonnull @.str.266, i32 noundef %.02425, i32 noundef %8)
  %11 = tail call ptr @wmem_packet_scope()
  %12 = tail call ptr @tvb_get_string_enc(ptr noundef %11, ptr noundef %0, i32 noundef %.026, i32 noundef %8, i32 noundef 0)
  %13 = load i32, ptr @hf_tacplus_arg_value, align 4
  %14 = tail call ptr (ptr, i32, ptr, i32, i32, ptr, ptr, ...) @proto_tree_add_string_format(ptr noundef %1, i32 noundef %13, ptr noundef %0, i32 noundef %.026, i32 noundef %8, ptr noundef %12, ptr noundef nonnull @.str.267, i32 noundef %.02425, ptr noundef %12)
  %15 = add i32 %.026, %8
  %16 = add nuw nsw i32 %.02425, 1
  %exitcond.not = icmp eq i32 %16, %4
  br i1 %exitcond.not, label %._crit_edge, label %.lr.ph, !llvm.loop !24

._crit_edge:                                      ; preds = %.lr.ph, %5
  ret void
}